target datalayout = "e-m:e-p270:32:32-p271:32:32-p272:64:64-i64:64-i128:128-f80:128-n8:16:32:64-S128"
target triple = "x86_64-pc-linux-gnu"

%struct.mbedtls_cipher_context_t = type { ptr, i32, i32, [16 x i8], i64, [16 x i8], i64, ptr }

; Function Attrs: mustprogress nounwind uwtable
define hidden i32 @mbedtls_cipher_reset(ptr noundef %0) #0 {
  %2 = alloca i32, align 4
  %3 = alloca ptr, align 8
  store ptr %0, ptr %3, align 8, !tbaa !36
  br label %4

4:                                                ; preds = %1
  br label %5

5:                                                ; preds = %4
  %6 = load ptr, ptr %3, align 8, !tbaa !36
  %7 = getelementptr inbounds nuw %struct.mbedtls_cipher_context_t, ptr %6, i32 0, i32 0
  %8 = load ptr, ptr %7, align 8, !tbaa !42
  %9 = icmp eq ptr %8, null
  br i1 %9, label %10, label %11

10:                                               ; preds = %5
  store i32 -24832, ptr %2, align 4
  br label %14

11:                                               ; preds = %5
  %12 = load ptr, ptr %3, align 8, !tbaa !36
  %13 = getelementptr inbounds nuw %struct.mbedtls_cipher_context_t, ptr %12, i32 0, i32 4
  store i64 0, ptr %13, align 8, !tbaa !55
  store i32 0, ptr %2, align 4
  br label %14

14:                                               ; preds = %11, %10
  %15 = load i32, ptr %2, align 4
  ret i32 %15
}