; Function Attrs: mustprogress nofree norecurse nosync nounwind willreturn memory(argmem: readwrite) uwtable
define hidden range(i32 -24832, 1) i32 @mbedtls_cipher_reset(ptr noundef captures(none) %0) local_unnamed_addr #11 {
  %2 = load ptr, ptr %0, align 8, !tbaa !33
  %3 = icmp eq ptr %2, null
  br i1 %3, label %6, label %4

4:                                                ; preds = %1
  %5 = getelementptr inbounds nuw i8, ptr %0, i64 32
  store i64 0, ptr %5, align 8, !tbaa !42
  br label %6

6:                                                ; preds = %1, %4
  %.0 = phi i32 [ 0, %4 ], [ -24832, %1 ]
  ret i32 %.0
}